target datalayout = "e-m:e-p270:32:32-p271:32:32-p272:64:64-i64:64-i128:128-f80:128-n8:16:32:64-S128"
target triple = "x86_64-pc-linux-gnu"

%"struct.(anonymous namespace)::Inclusion" = type { ptr, %"struct.icu_77::UInitOnce" }
%"struct.icu_77::UInitOnce" = type { %"struct.std::atomic", i32 }
%"struct.std::atomic" = type { %"struct.std::__atomic_base" }
%"struct.std::__atomic_base" = type { i32 }

@_ZN12_GLOBAL__N_111gInclusionsE = internal global [47 x %"struct.(anonymous namespace)::Inclusion"] zeroinitializer, align 16

; Function Attrs: mustprogress nounwind uwtable
define linkonce_odr noundef i32 @_ZStanSt12memory_orderSt23__memory_order_modifier(i32 noundef %0, i32 noundef %1) #4 comdat {
  %3 = alloca i32, align 4
  %4 = alloca i32, align 4
  store i32 %0, ptr %3, align 4, !tbaa !77
  store i32 %1, ptr %4, align 4, !tbaa !79
  %5 = load i32, ptr %3, align 4, !tbaa !77
  %6 = load i32, ptr %4, align 4, !tbaa !79
  %7 = and i32 %5, %6
  ret i32 %7
}

; Function Attrs: alwaysinline mustprogress nounwind uwtable
define linkonce_odr noundef i32 @_ZNKSt13__atomic_baseIiE4loadESt12memory_order(ptr noundef nonnull align 4 dereferenceable(4) %0, i32 noundef %1) #6 comdat align 2 {
  %3 = alloca ptr, align 8
  %4 = alloca i32, align 4
  %5 = alloca i32, align 4
  %6 = alloca i32, align 4
  store ptr %0, ptr %3, align 8, !tbaa !75
  store i32 %1, ptr %4, align 4, !tbaa !77
  %7 = load ptr, ptr %3, align 8
  call void @llvm.lifetime.start.p0(i64 4, ptr %5) #8
  %8 = load i32, ptr %4, align 4, !tbaa !77
  %9 = call noundef i32 @_ZStanSt12memory_orderSt23__memory_order_modifier(i32 noundef %8, i32 noundef 65535)
  store i32 %9, ptr %5, align 4, !tbaa !77
  br label %10

10:                                               ; preds = %2
  br label %11

11:                                               ; preds = %10
  br label %12

12:                                               ; preds = %11
  br label %13

13:                                               ; preds = %12
  br label %14

14:                                               ; preds = %13
  br label %15

15:                                               ; preds = %14
  %16 = getelementptr inbounds nuw %"struct.std::__atomic_base", ptr %7, i32 0, i32 0
  %17 = load i32, ptr %4, align 4, !tbaa !77
  switch i32 %17, label %18 [
    i32 1, label %20
    i32 2, label %20
    i32 5, label %22
  ]

18:                                               ; preds = %15
  %19 = load atomic i32, ptr %16 monotonic, align 4
  store i32 %19, ptr %6, align 4
  br label %24

20:                                               ; preds = %15, %15
  %21 = load atomic i32, ptr %16 acquire, align 4
  store i32 %21, ptr %6, align 4
  br label %24

22:                                               ; preds = %15
  %23 = load atomic i32, ptr %16 seq_cst, align 4
  store i32 %23, ptr %6, align 4
  br label %24

24:                                               ; preds = %22, %20, %18
  %25 = load i32, ptr %6, align 4, !tbaa !11
  call void @llvm.lifetime.end.p0(i64 4, ptr %5) #8
  ret i32 %25
}

; Function Attrs: inlinehint mustprogress nounwind uwtable
define linkonce_odr noundef i32 @_ZN6icu_7716umtx_loadAcquireERSt6atomicIiE(ptr noundef nonnull align 4 dereferenceable(4) %0) #1 comdat {
  %2 = alloca ptr, align 8
  store ptr %0, ptr %2, align 8, !tbaa !83
  %3 = load ptr, ptr %2, align 8, !tbaa !83
  %4 = call noundef i32 @_ZNKSt13__atomic_baseIiE4loadESt12memory_order(ptr noundef nonnull align 4 dereferenceable(4) %3, i32 noundef 2) #8
  ret i32 %4
}

; Function Attrs: mustprogress uwtable
define linkonce_odr void @_ZN6icu_7713umtx_initOnceI9UPropertyEEvRNS_9UInitOnceEPFvT_R10UErrorCodeES4_S6_(ptr noundef nonnull align 4 dereferenceable(8) %0, ptr noundef %1, i32 noundef %2, ptr noundef nonnull align 4 dereferenceable(4) %3) #0 comdat {
  %5 = alloca ptr, align 8
  %6 = alloca ptr, align 8
  %7 = alloca i32, align 4
  %8 = alloca ptr, align 8
  store ptr %0, ptr %5, align 8, !tbaa !23
  store ptr %1, ptr %6, align 8, !tbaa !7
  store i32 %2, ptr %7, align 4, !tbaa !3
  store ptr %3, ptr %8, align 8, !tbaa !7
  %9 = load ptr, ptr %8, align 8, !tbaa !7
  %10 = load i32, ptr %9, align 4, !tbaa !9
  %11 = call noundef signext i8 @_ZL9U_FAILURE10UErrorCode(i32 noundef %10)
  %12 = icmp ne i8 %11, 0
  br i1 %12, label %13, label %14

13:                                               ; preds = %4
  br label %44

14:                                               ; preds = %4
  %15 = load ptr, ptr %5, align 8, !tbaa !23
  %16 = getelementptr inbounds nuw %"struct.icu_77::UInitOnce", ptr %15, i32 0, i32 0
  %17 = call noundef i32 @_ZN6icu_7716umtx_loadAcquireERSt6atomicIiE(ptr noundef nonnull align 4 dereferenceable(4) %16)
  %18 = icmp ne i32 %17, 2
  br i1 %18, label %19, label %32

19:                                               ; preds = %14
  %20 = load ptr, ptr %5, align 8, !tbaa !23
  %21 = call noundef signext i8 @_ZN6icu_7720umtx_initImplPreInitERNS_9UInitOnceE(ptr noundef nonnull align 4 dereferenceable(8) %20)
  %22 = icmp ne i8 %21, 0
  br i1 %22, label %23, label %32

23:                                               ; preds = %19
  %24 = load ptr, ptr %6, align 8, !tbaa !7
  %25 = load i32, ptr %7, align 4, !tbaa !3
  %26 = load ptr, ptr %8, align 8, !tbaa !7
  call void %24(i32 noundef %25, ptr noundef nonnull align 4 dereferenceable(4) %26)
  %27 = load ptr, ptr %8, align 8, !tbaa !7
  %28 = load i32, ptr %27, align 4, !tbaa !9
  %29 = load ptr, ptr %5, align 8, !tbaa !23
  %30 = getelementptr inbounds nuw %"struct.icu_77::UInitOnce", ptr %29, i32 0, i32 1
  store i32 %28, ptr %30, align 4, !tbaa !25
  %31 = load ptr, ptr %5, align 8, !tbaa !23
  call void @_ZN6icu_7721umtx_initImplPostInitERNS_9UInitOnceE(ptr noundef nonnull align 4 dereferenceable(8) %31)
  br label %44

32:                                               ; preds = %19, %14
  %33 = load ptr, ptr %5, align 8, !tbaa !23
  %34 = getelementptr inbounds nuw %"struct.icu_77::UInitOnce", ptr %33, i32 0, i32 1
  %35 = load i32, ptr %34, align 4, !tbaa !25
  %36 = call noundef signext i8 @_ZL9U_FAILURE10UErrorCode(i32 noundef %35)
  %37 = icmp ne i8 %36, 0
  br i1 %37, label %38, label %43

38:                                               ; preds = %32
  %39 = load ptr, ptr %5, align 8, !tbaa !23
  %40 = getelementptr inbounds nuw %"struct.icu_77::UInitOnce", ptr %39, i32 0, i32 1
  %41 = load i32, ptr %40, align 4, !tbaa !25
  %42 = load ptr, ptr %8, align 8, !tbaa !7
  store i32 %41, ptr %42, align 4, !tbaa !9
  br label %43

43:                                               ; preds = %38, %32
  br label %44

44:                                               ; preds = %13, %43, %23
  ret void
}

; Function Attrs: inlinehint mustprogress nounwind uwtable
define internal noundef signext i8 @_ZL9U_FAILURE10UErrorCode(i32 noundef %0) #1 {
  %2 = alloca i32, align 4
  store i32 %0, ptr %2, align 4, !tbaa !9
  %3 = load i32, ptr %2, align 4, !tbaa !9
  %4 = icmp sgt i32 %3, 0
  %5 = zext i1 %4 to i8
  ret i8 %5
}

; Function Attrs: mustprogress uwtable
define noundef ptr @_ZN6icu_7719CharacterProperties24getInclusionsForPropertyE9UPropertyR10UErrorCode(i32 noundef %0, ptr noundef nonnull align 4 dereferenceable(4) %1) #0 align 2 {
  %3 = alloca ptr, align 8
  %4 = alloca i32, align 4
  %5 = alloca ptr, align 8
  %6 = alloca i32, align 4
  %7 = alloca ptr, align 8
  %8 = alloca i32, align 4
  store i32 %0, ptr %4, align 4, !tbaa !3
  store ptr %1, ptr %5, align 8, !tbaa !7
  %9 = load ptr, ptr %5, align 8, !tbaa !7
  %10 = load i32, ptr %9, align 4, !tbaa !9
  %11 = call noundef signext i8 @_ZL9U_FAILURE10UErrorCode(i32 noundef %10)
  %12 = icmp ne i8 %11, 0
  br i1 %12, label %13, label %14

13:                                               ; preds = %2
  store ptr null, ptr %3, align 8
  br label %40

14:                                               ; preds = %2
  %15 = load i32, ptr %4, align 4, !tbaa !3
  %16 = icmp sle i32 4096, %15
  br i1 %16, label %17, label %34

17:                                               ; preds = %14
  %18 = load i32, ptr %4, align 4, !tbaa !3
  %19 = icmp slt i32 %18, 4123
  br i1 %19, label %20, label %34

20:                                               ; preds = %17
  call void @llvm.lifetime.start.p0(i64 4, ptr %6) #8
  %21 = load i32, ptr %4, align 4, !tbaa !3
  %22 = sub nsw i32 %21, 4096
  %23 = add nsw i32 20, %22
  store i32 %23, ptr %6, align 4, !tbaa !11
  call void @llvm.lifetime.start.p0(i64 8, ptr %7) #8
  %24 = load i32, ptr %6, align 4, !tbaa !11
  %25 = sext i32 %24 to i64
  %26 = getelementptr inbounds [47 x %"struct.(anonymous namespace)::Inclusion"], ptr @_ZN12_GLOBAL__N_111gInclusionsE, i64 0, i64 %25
  store ptr %26, ptr %7, align 8, !tbaa !13
  %27 = load ptr, ptr %7, align 8, !tbaa !13
  %28 = getelementptr inbounds nuw %"struct.(anonymous namespace)::Inclusion", ptr %27, i32 0, i32 1
  %29 = load i32, ptr %4, align 4, !tbaa !3
  %30 = load ptr, ptr %5, align 8, !tbaa !7
  call void @_ZN6icu_7713umtx_initOnceI9UPropertyEEvRNS_9UInitOnceEPFvT_R10UErrorCodeES4_S6_(ptr noundef nonnull align 4 dereferenceable(8) %28, ptr noundef @_ZN12_GLOBAL__N_120initIntPropInclusionE9UPropertyR10UErrorCode, i32 noundef %29, ptr noundef nonnull align 4 dereferenceable(4) %30)
  %31 = load ptr, ptr %7, align 8, !tbaa !13
  %32 = getelementptr inbounds nuw %"struct.(anonymous namespace)::Inclusion", ptr %31, i32 0, i32 0
  %33 = load ptr, ptr %32, align 8, !tbaa !15
  store ptr %33, ptr %3, align 8
  call void @llvm.lifetime.end.p0(i64 8, ptr %7) #8
  call void @llvm.lifetime.end.p0(i64 4, ptr %6) #8
  br label %40

34:                                               ; preds = %17, %14
  call void @llvm.lifetime.start.p0(i64 4, ptr %8) #8
  %35 = load i32, ptr %4, align 4, !tbaa !3
  %36 = call i32 @uprops_getSource_77(i32 noundef %35)
  store i32 %36, ptr %8, align 4, !tbaa !21
  %37 = load i32, ptr %8, align 4, !tbaa !21
  %38 = load ptr, ptr %5, align 8, !tbaa !7
  %39 = call noundef ptr @_ZN12_GLOBAL__N_122getInclusionsForSourceE15UPropertySourceR10UErrorCode(i32 noundef %37, ptr noundef nonnull align 4 dereferenceable(4) %38)
  store ptr %39, ptr %3, align 8
  call void @llvm.lifetime.end.p0(i64 4, ptr %8) #8
  br label %40

40:                                               ; preds = %34, %20, %13
  %41 = load ptr, ptr %3, align 8
  ret ptr %41
}