; Function Attrs: mustprogress uwtable
define noundef ptr @_ZN6icu_7719CharacterProperties24getInclusionsForPropertyE9UPropertyR10UErrorCode(i32 noundef %0, ptr noundef nonnull align 4 dereferenceable(4) %1) local_unnamed_addr #0 align 2 personality ptr @__gxx_personality_v0 {
  %3 = alloca %"class.icu_77::LocalPointer", align 8
  %4 = load i32, ptr %1, align 4, !tbaa !3
  %5 = icmp slt i32 %4, 1
  br i1 %5, label %6, label %70

6:                                                ; preds = %2
  %7 = add i32 %0, -4096
  %or.cond = icmp ult i32 %7, 27
  br i1 %or.cond, label %8, label %67

8:                                                ; preds = %6
  %9 = add nsw i32 %0, -4076
  %10 = zext nneg i32 %9 to i64
  %11 = getelementptr inbounds nuw [47 x %"struct.(anonymous namespace)::Inclusion"], ptr @_ZN12_GLOBAL__N_111gInclusionsE, i64 0, i64 %10
  %12 = getelementptr inbounds nuw i8, ptr %11, i64 8
  %13 = load atomic i32, ptr %12 acquire, align 8
  %.not11.i = icmp eq i32 %13, 2
  br i1 %.not11.i, label %61, label %14

14:                                               ; preds = %8
  %15 = tail call noundef signext i8 @_ZN6icu_7720umtx_initImplPreInitERNS_9UInitOnceE(ptr noundef nonnull align 4 dereferenceable(8) %12)
  %.not12.i = icmp eq i8 %15, 0
  br i1 %.not12.i, label %61, label %16

16:                                               ; preds = %14
  %17 = tail call i32 @uprops_getSource_77(i32 noundef %0)
  %18 = tail call fastcc noundef ptr @_ZN12_GLOBAL__N_122getInclusionsForSourceE15UPropertySourceR10UErrorCode(i32 noundef %17, ptr noundef nonnull align 4 dereferenceable(4) %1)
  %19 = load i32, ptr %1, align 4, !tbaa !3
  %20 = icmp slt i32 %19, 1
  br i1 %20, label %21, label %_ZN12_GLOBAL__N_120initIntPropInclusionE9UPropertyR10UErrorCode.exit

21:                                               ; preds = %16
  call void @llvm.lifetime.start.p0(i64 8, ptr nonnull %3) #8
  %22 = tail call noundef ptr @_ZN6icu_777UMemorynwEm(i64 noundef 200) #8
  %23 = icmp eq ptr %22, null
  br i1 %23, label %.thread50.i, label %24

24:                                               ; preds = %21
  invoke void @_ZN6icu_7710UnicodeSetC1Eii(ptr noundef nonnull align 8 dereferenceable(200) %22, i32 noundef 0, i32 noundef 0)
          to label %27 unwind label %25

.thread50.i:                                      ; preds = %21
  store i32 7, ptr %1, align 4, !tbaa !3
  br label %_ZN6icu_7712LocalPointerINS_10UnicodeSetEED2Ev.exit.i

25:                                               ; preds = %24
  %26 = landingpad { ptr, i32 }
          cleanup
  tail call void @_ZN6icu_777UMemorydlEPv(ptr noundef nonnull %22) #8
  br label %58

27:                                               ; preds = %24
  store ptr %22, ptr %3, align 8, !tbaa !7
  %28 = invoke noundef i32 @_ZNK6icu_7710UnicodeSet13getRangeCountEv(ptr noundef nonnull align 8 dereferenceable(200) %18)
          to label %.preheader51.i unwind label %33

.preheader51.i:                                   ; preds = %27
  %29 = icmp sgt i32 %28, 0
  br i1 %29, label %.lr.ph58.i, label %._crit_edge59.i

._crit_edge59.i:                                  ; preds = %._crit_edge.i, %.preheader51.i
  %30 = getelementptr inbounds nuw i8, ptr %22, i64 32
  %31 = load i8, ptr %30, align 8, !tbaa !11
  %32 = and i8 %31, 1
  %.not41.i = icmp eq i8 %32, 0
  br i1 %.not41.i, label %53, label %56

33:                                               ; preds = %27
  %34 = landingpad { ptr, i32 }
          cleanup
  br label %57

.lr.ph58.i:                                       ; preds = %.preheader51.i, %._crit_edge.i
  %.02857.i = phi i32 [ %38, %._crit_edge.i ], [ 0, %.preheader51.i ]
  %.02956.i = phi i32 [ %.1.lcssa.i, %._crit_edge.i ], [ 0, %.preheader51.i ]
  %35 = invoke noundef i32 @_ZNK6icu_7710UnicodeSet11getRangeEndEi(ptr noundef nonnull align 8 dereferenceable(200) %18, i32 noundef %.02857.i)
          to label %36 unwind label %39

36:                                               ; preds = %.lr.ph58.i
  %37 = invoke noundef i32 @_ZNK6icu_7710UnicodeSet13getRangeStartEi(ptr noundef nonnull align 8 dereferenceable(200) %18, i32 noundef %.02857.i)
          to label %.preheader.i unwind label %41

.preheader.i:                                     ; preds = %36
  %.not4253.i = icmp sgt i32 %37, %35
  br i1 %.not4253.i, label %._crit_edge.i, label %.lr.ph.i

._crit_edge.i:                                    ; preds = %49, %.preheader.i
  %.1.lcssa.i = phi i32 [ %.02956.i, %.preheader.i ], [ %.2.i, %49 ]
  %38 = add nuw nsw i32 %.02857.i, 1
  %exitcond60.not.i = icmp eq i32 %38, %28
  br i1 %exitcond60.not.i, label %._crit_edge59.i, label %.lr.ph58.i, !llvm.loop !23

39:                                               ; preds = %.lr.ph58.i
  %40 = landingpad { ptr, i32 }
          cleanup
  br label %57

41:                                               ; preds = %36
  %42 = landingpad { ptr, i32 }
          cleanup
  br label %57

.lr.ph.i:                                         ; preds = %.preheader.i, %49
  %.055.i = phi i32 [ %50, %49 ], [ %37, %.preheader.i ]
  %.154.i = phi i32 [ %.2.i, %49 ], [ %.02956.i, %.preheader.i ]
  %43 = invoke i32 @u_getIntPropertyValue_77(i32 noundef %.055.i, i32 noundef %0)
          to label %44 unwind label %47

44:                                               ; preds = %.lr.ph.i
  %.not43.i = icmp eq i32 %43, %.154.i
  br i1 %.not43.i, label %49, label %45

45:                                               ; preds = %44
  %46 = invoke noundef nonnull align 8 dereferenceable(200) ptr @_ZN6icu_7710UnicodeSet3addEi(ptr noundef nonnull align 8 dereferenceable(200) %22, i32 noundef %.055.i)
          to label %49 unwind label %47

47:                                               ; preds = %45, %.lr.ph.i
  %48 = landingpad { ptr, i32 }
          cleanup
  br label %57

49:                                               ; preds = %45, %44
  %.2.i = phi i32 [ %.154.i, %44 ], [ %43, %45 ]
  %50 = add i32 %.055.i, 1
  %exitcond.not.i = icmp eq i32 %.055.i, %35
  br i1 %exitcond.not.i, label %._crit_edge.i, label %.lr.ph.i, !llvm.loop !25

51:                                               ; preds = %55, %53
  %52 = landingpad { ptr, i32 }
          cleanup
  br label %57

53:                                               ; preds = %._crit_edge59.i
  %54 = invoke noundef nonnull align 8 dereferenceable(200) ptr @_ZN6icu_7710UnicodeSet7compactEv(ptr noundef nonnull align 8 dereferenceable(200) %22)
          to label %55 unwind label %51

55:                                               ; preds = %53
  store ptr null, ptr %3, align 8, !tbaa !7
  store ptr %22, ptr %11, align 16, !tbaa !26
  invoke void @ucln_common_registerCleanup_77(i32 noundef 16, ptr noundef nonnull @_ZN12_GLOBAL__N_127characterproperties_cleanupEv)
          to label %_ZN6icu_7712LocalPointerINS_10UnicodeSetEED2Ev.exit.i unwind label %51

56:                                               ; preds = %._crit_edge59.i
  store i32 7, ptr %1, align 4, !tbaa !3
  tail call void @_ZN6icu_7710UnicodeSetD1Ev(ptr noundef nonnull align 8 dereferenceable(200) %22) #8
  tail call void @_ZN6icu_777UMemorydlEPv(ptr noundef nonnull %22) #8
  br label %_ZN6icu_7712LocalPointerINS_10UnicodeSetEED2Ev.exit.i

_ZN6icu_7712LocalPointerINS_10UnicodeSetEED2Ev.exit.i: ; preds = %56, %55, %.thread50.i
  call void @llvm.lifetime.end.p0(i64 8, ptr nonnull %3) #8
  %.pre = load i32, ptr %1, align 4, !tbaa !3
  br label %_ZN12_GLOBAL__N_120initIntPropInclusionE9UPropertyR10UErrorCode.exit

57:                                               ; preds = %51, %47, %41, %39, %33
  %.pn.pn.pn.pn.i = phi { ptr, i32 } [ %34, %33 ], [ %52, %51 ], [ %40, %39 ], [ %48, %47 ], [ %42, %41 ]
  call void @_ZN6icu_7712LocalPointerINS_10UnicodeSetEED2Ev(ptr noundef nonnull align 8 dereferenceable(8) %3) #8
  br label %58

58:                                               ; preds = %57, %25
  %.pn.pn.pn.pn.pn.i = phi { ptr, i32 } [ %.pn.pn.pn.pn.i, %57 ], [ %26, %25 ]
  call void @llvm.lifetime.end.p0(i64 8, ptr nonnull %3) #8
  resume { ptr, i32 } %.pn.pn.pn.pn.pn.i

_ZN12_GLOBAL__N_120initIntPropInclusionE9UPropertyR10UErrorCode.exit: ; preds = %16, %_ZN6icu_7712LocalPointerINS_10UnicodeSetEED2Ev.exit.i
  %59 = phi i32 [ %19, %16 ], [ %.pre, %_ZN6icu_7712LocalPointerINS_10UnicodeSetEED2Ev.exit.i ]
  %60 = getelementptr inbounds nuw i8, ptr %11, i64 12
  store i32 %59, ptr %60, align 4, !tbaa !31
  tail call void @_ZN6icu_7721umtx_initImplPostInitERNS_9UInitOnceE(ptr noundef nonnull align 4 dereferenceable(8) %12)
  br label %_ZN6icu_7713umtx_initOnceI9UPropertyEEvRNS_9UInitOnceEPFvT_R10UErrorCodeES4_S6_.exit

61:                                               ; preds = %14, %8
  %62 = getelementptr inbounds nuw i8, ptr %11, i64 12
  %63 = load i32, ptr %62, align 4, !tbaa !31
  %64 = icmp slt i32 %63, 1
  br i1 %64, label %_ZN6icu_7713umtx_initOnceI9UPropertyEEvRNS_9UInitOnceEPFvT_R10UErrorCodeES4_S6_.exit, label %65

65:                                               ; preds = %61
  store i32 %63, ptr %1, align 4, !tbaa !3
  br label %_ZN6icu_7713umtx_initOnceI9UPropertyEEvRNS_9UInitOnceEPFvT_R10UErrorCodeES4_S6_.exit

_ZN6icu_7713umtx_initOnceI9UPropertyEEvRNS_9UInitOnceEPFvT_R10UErrorCodeES4_S6_.exit: ; preds = %_ZN12_GLOBAL__N_120initIntPropInclusionE9UPropertyR10UErrorCode.exit, %61, %65
  %66 = load ptr, ptr %11, align 16, !tbaa !26
  br label %70

67:                                               ; preds = %6
  %68 = tail call i32 @uprops_getSource_77(i32 noundef %0)
  %69 = tail call fastcc noundef ptr @_ZN12_GLOBAL__N_122getInclusionsForSourceE15UPropertySourceR10UErrorCode(i32 noundef %68, ptr noundef nonnull align 4 dereferenceable(4) %1)
  br label %70

70:                                               ; preds = %2, %67, %_ZN6icu_7713umtx_initOnceI9UPropertyEEvRNS_9UInitOnceEPFvT_R10UErrorCodeES4_S6_.exit
  %.0 = phi ptr [ %66, %_ZN6icu_7713umtx_initOnceI9UPropertyEEvRNS_9UInitOnceEPFvT_R10UErrorCodeES4_S6_.exit ], [ %69, %67 ], [ null, %2 ]
  ret ptr %.0
}